; ModuleID = '14/706.c'
source_filename = "14/706.c"
target datalayout = "e-m:e-p270:32:32-p271:32:32-p272:64:64-i64:64-f80:128-n8:16:32:64-S128"
target triple = "x86_64-pc-linux-gnu"

%struct.statistics = type { i32, i32, i32, i32 }

@.str = private unnamed_addr constant [3 x i8] c"%d\00", align 1
@.str.1 = private unnamed_addr constant [9 x i8] c"%d %d %d\00", align 1
@form = common dso_local global [100000 x %struct.statistics] zeroinitializer, align 16
@temp = common dso_local global %struct.statistics zeroinitializer, align 4
@.str.2 = private unnamed_addr constant [7 x i8] c"%d %d\0A\00", align 1

; Function Attrs: noinline nounwind uwtable
define dso_local i32 @main() #0 {
  %1 = alloca i32, align 4
  %2 = alloca i32, align 4
  %3 = alloca i32, align 4
  %4 = alloca i32, align 4
  %5 = alloca i32, align 4
  store i32 0, i32* %1, align 4
  %6 = call i32 (i8*, ...) @__isoc99_scanf(i8* getelementptr inbounds ([3 x i8], [3 x i8]* @.str, i64 0, i64 0), i32* %2)
  store i32 0, i32* %3, align 4
  br label %7

7:                                                ; preds = %40, %0
  %8 = load i32, i32* %3, align 4
  %9 = load i32, i32* %2, align 4
  %10 = icmp slt i32 %8, %9
  br i1 %10, label %11, label %43

11:                                               ; preds = %7
  %12 = load i32, i32* %3, align 4
  %13 = sext i32 %12 to i64
  %14 = getelementptr inbounds [100000 x %struct.statistics], [100000 x %struct.statistics]* @form, i64 0, i64 %13
  %15 = getelementptr inbounds %struct.statistics, %struct.statistics* %14, i32 0, i32 0
  %16 = load i32, i32* %3, align 4
  %17 = sext i32 %16 to i64
  %18 = getelementptr inbounds [100000 x %struct.statistics], [100000 x %struct.statistics]* @form, i64 0, i64 %17
  %19 = getelementptr inbounds %struct.statistics, %struct.statistics* %18, i32 0, i32 1
  %20 = load i32, i32* %3, align 4
  %21 = sext i32 %20 to i64
  %22 = getelementptr inbounds [100000 x %struct.statistics], [100000 x %struct.statistics]* @form, i64 0, i64 %21
  %23 = getelementptr inbounds %struct.statistics, %struct.statistics* %22, i32 0, i32 2
  %24 = call i32 (i8*, ...) @__isoc99_scanf(i8* getelementptr inbounds ([9 x i8], [9 x i8]* @.str.1, i64 0, i64 0), i32* %15, i32* %19, i32* %23)
  %25 = load i32, i32* %3, align 4
  %26 = sext i32 %25 to i64
  %27 = getelementptr inbounds [100000 x %struct.statistics], [100000 x %struct.statistics]* @form, i64 0, i64 %26
  %28 = getelementptr inbounds %struct.statistics, %struct.statistics* %27, i32 0, i32 1
  %29 = load i32, i32* %28, align 4
  %30 = load i32, i32* %3, align 4
  %31 = sext i32 %30 to i64
  %32 = getelementptr inbounds [100000 x %struct.statistics], [100000 x %struct.statistics]* @form, i64 0, i64 %31
  %33 = getelementptr inbounds %struct.statistics, %struct.statistics* %32, i32 0, i32 2
  %34 = load i32, i32* %33, align 8
  %35 = add nsw i32 %29, %34
  %36 = load i32, i32* %3, align 4
  %37 = sext i32 %36 to i64
  %38 = getelementptr inbounds [100000 x %struct.statistics], [100000 x %struct.statistics]* @form, i64 0, i64 %37
  %39 = getelementptr inbounds %struct.statistics, %struct.statistics* %38, i32 0, i32 3
  store i32 %35, i32* %39, align 4
  br label %40

40:                                               ; preds = %11
  %41 = load i32, i32* %3, align 4
  %42 = add nsw i32 %41, 1
  store i32 %42, i32* %3, align 4
  br label %7

43:                                               ; preds = %7
  store i32 0, i32* %3, align 4
  br label %44

44:                                               ; preds = %95, %43
  %45 = load i32, i32* %3, align 4
  %46 = icmp slt i32 %45, 3
  br i1 %46, label %47, label %98

47:                                               ; preds = %44
  %48 = load i32, i32* %3, align 4
  store i32 %48, i32* %5, align 4
  %49 = load i32, i32* %3, align 4
  %50 = add nsw i32 %49, 1
  store i32 %50, i32* %4, align 4
  br label %51

51:                                               ; preds = %70, %47
  %52 = load i32, i32* %4, align 4
  %53 = load i32, i32* %2, align 4
  %54 = icmp slt i32 %52, %53
  br i1 %54, label %55, label %73

55:                                               ; preds = %51
  %56 = load i32, i32* %4, align 4
  %57 = sext i32 %56 to i64
  %58 = getelementptr inbounds [100000 x %struct.statistics], [100000 x %struct.statistics]* @form, i64 0, i64 %57
  %59 = getelementptr inbounds %struct.statistics, %struct.statistics* %58, i32 0, i32 3
  %60 = load i32, i32* %59, align 4
  %61 = load i32, i32* %5, align 4
  %62 = sext i32 %61 to i64
  %63 = getelementptr inbounds [100000 x %struct.statistics], [100000 x %struct.statistics]* @form, i64 0, i64 %62
  %64 = getelementptr inbounds %struct.statistics, %struct.statistics* %63, i32 0, i32 3
  %65 = load i32, i32* %64, align 4
  %66 = icmp sgt i32 %60, %65
  br i1 %66, label %67, label %69

67:                                               ; preds = %55
  %68 = load i32, i32* %4, align 4
  store i32 %68, i32* %5, align 4
  br label %69

69:                                               ; preds = %67, %55
  br label %70

70:                                               ; preds = %69
  %71 = load i32, i32* %4, align 4
  %72 = add nsw i32 %71, 1
  store i32 %72, i32* %4, align 4
  br label %51

73:                                               ; preds = %51
  %74 = load i32, i32* %5, align 4
  %75 = load i32, i32* %3, align 4
  %76 = icmp ne i32 %74, %75
  br i1 %76, label %77, label %94

77:                                               ; preds = %73
  %78 = load i32, i32* %3, align 4
  %79 = sext i32 %78 to i64
  %80 = getelementptr inbounds [100000 x %struct.statistics], [100000 x %struct.statistics]* @form, i64 0, i64 %79
  %81 = bitcast %struct.statistics* %80 to i8*
  call void @llvm.memcpy.p0i8.p0i8.i64(i8* align 4 bitcast (%struct.statistics* @temp to i8*), i8* align 16 %81, i64 16, i1 false)
  %82 = load i32, i32* %3, align 4
  %83 = sext i32 %82 to i64
  %84 = getelementptr inbounds [100000 x %struct.statistics], [100000 x %struct.statistics]* @form, i64 0, i64 %83
  %85 = load i32, i32* %5, align 4
  %86 = sext i32 %85 to i64
  %87 = getelementptr inbounds [100000 x %struct.statistics], [100000 x %struct.statistics]* @form, i64 0, i64 %86
  %88 = bitcast %struct.statistics* %84 to i8*
  %89 = bitcast %struct.statistics* %87 to i8*
  call void @llvm.memcpy.p0i8.p0i8.i64(i8* align 16 %88, i8* align 16 %89, i64 16, i1 false)
  %90 = load i32, i32* %5, align 4
  %91 = sext i32 %90 to i64
  %92 = getelementptr inbounds [100000 x %struct.statistics], [100000 x %struct.statistics]* @form, i64 0, i64 %91
  %93 = bitcast %struct.statistics* %92 to i8*
  call void @llvm.memcpy.p0i8.p0i8.i64(i8* align 16 %93, i8* align 4 bitcast (%struct.statistics* @temp to i8*), i64 16, i1 false)
  br label %94

94:                                               ; preds = %77, %73
  br label %95

95:                                               ; preds = %94
  %96 = load i32, i32* %3, align 4
  %97 = add nsw i32 %96, 1
  store i32 %97, i32* %3, align 4
  br label %44

98:                                               ; preds = %44
  store i32 0, i32* %3, align 4
  br label %99

99:                                               ; preds = %114, %98
  %100 = load i32, i32* %3, align 4
  %101 = icmp slt i32 %100, 3
  br i1 %101, label %102, label %117

102:                                              ; preds = %99
  %103 = load i32, i32* %3, align 4
  %104 = sext i32 %103 to i64
  %105 = getelementptr inbounds [100000 x %struct.statistics], [100000 x %struct.statistics]* @form, i64 0, i64 %104
  %106 = getelementptr inbounds %struct.statistics, %struct.statistics* %105, i32 0, i32 0
  %107 = load i32, i32* %106, align 16
  %108 = load i32, i32* %3, align 4
  %109 = sext i32 %108 to i64
  %110 = getelementptr inbounds [100000 x %struct.statistics], [100000 x %struct.statistics]* @form, i64 0, i64 %109
  %111 = getelementptr inbounds %struct.statistics, %struct.statistics* %110, i32 0, i32 3
  %112 = load i32, i32* %111, align 4
  %113 = call i32 (i8*, ...) @printf(i8* getelementptr inbounds ([7 x i8], [7 x i8]* @.str.2, i64 0, i64 0), i32 %107, i32 %112)
  br label %114

114:                                              ; preds = %102
  %115 = load i32, i32* %3, align 4
  %116 = add nsw i32 %115, 1
  store i32 %116, i32* %3, align 4
  br label %99

117:                                              ; preds = %99
  ret i32 0
}

declare dso_local i32 @__isoc99_scanf(i8*, ...) #1

; Function Attrs: argmemonly nounwind willreturn
declare void @llvm.memcpy.p0i8.p0i8.i64(i8* noalias nocapture writeonly, i8* noalias nocapture readonly, i64, i1 immarg) #2

declare dso_local i32 @printf(i8*, ...) #1


!llvm.module.flags = !{!0}
!llvm.ident = !{!1}

!0 = !{i32 1, !"wchar_size", i32 4}
!1 = !{!"clang version 10.0.0-4ubuntu1 "}
